; Function Attrs: nounwind sspstrong uwtable
define hidden void @rb_iseq_set_yjit_payload(ptr noundef %0, ptr noundef %1) local_unnamed_addr #0 {
  %3 = ptrtoint ptr %0 to i64
  %4 = icmp eq ptr %0, null
  %5 = and i64 %3, 7
  %6 = icmp ne i64 %5, 0
  %7 = or i1 %4, %6
  br i1 %7, label %imemo_type_p.exit.thread, label %imemo_type_p.exit, !prof !113

imemo_type_p.exit:                                ; preds = %2
  %8 = load i64, ptr %0, align 8, !tbaa !11
  %9 = and i64 %8, 61471
  %.not = icmp eq i64 %9, 28698
  br i1 %.not, label %10, label %imemo_type_p.exit.thread, !prof !114

imemo_type_p.exit.thread:                         ; preds = %2, %imemo_type_p.exit
  tail call void @rb_assert_failure(ptr noundef nonnull @.str.12, i32 noundef 422, ptr noundef nonnull @__func__.rb_iseq_set_yjit_payload, ptr noundef nonnull @.str.16) #24
  unreachable

10:                                               ; preds = %imemo_type_p.exit
  %11 = getelementptr inbounds nuw i8, ptr %0, i64 16
  %12 = load ptr, ptr %11, align 8, !tbaa !94
  %.not5 = icmp eq ptr %12, null
  br i1 %.not5, label %13, label %14, !prof !113

13:                                               ; preds = %10
  tail call void @rb_assert_failure(ptr noundef nonnull @.str.12, i32 noundef 423, ptr noundef nonnull @__func__.rb_iseq_set_yjit_payload, ptr noundef nonnull @.str.17) #24
  unreachable

14:                                               ; preds = %10
  %15 = getelementptr inbounds nuw i8, ptr %12, i64 328
  %16 = load ptr, ptr %15, align 8, !tbaa !115
  %17 = icmp eq ptr %16, null
  br i1 %17, label %19, label %18, !prof !55

18:                                               ; preds = %14
  tail call void @rb_assert_failure(ptr noundef nonnull @.str.12, i32 noundef 424, ptr noundef nonnull @__func__.rb_iseq_set_yjit_payload, ptr noundef nonnull @.str.18) #24
  unreachable

19:                                               ; preds = %14
  store ptr %1, ptr %15, align 8, !tbaa !115
  ret void
}